; Function Attrs: nounwind uwtable
define internal range(i32 -1, 2) i32 @wait_for_incoming_stream(ptr noundef captures(none) %0) #0 {
  %2 = load ptr, ptr %0, align 8, !tbaa !204
  %3 = getelementptr inbounds nuw i8, ptr %2, i64 24
  %4 = load ptr, ptr %3, align 8, !tbaa !134
  %5 = getelementptr inbounds nuw i8, ptr %4, i64 160
  %6 = load ptr, ptr %5, align 8, !tbaa !113
  %7 = tail call ptr @ossl_quic_channel_get_qsm(ptr noundef %6) #12
  %8 = getelementptr inbounds nuw i8, ptr %4, i64 336
  %9 = load i16, ptr %8, align 8
  %10 = and i16 %9, 32
  %.not.i = icmp eq i16 %10, 0
  br i1 %.not.i, label %11, label %17

11:                                               ; preds = %1
  %12 = load ptr, ptr %5, align 8, !tbaa !113
  %13 = tail call i32 @ossl_quic_channel_is_term_any(ptr noundef %12) #12
  %.not4.i = icmp eq i32 %13, 0
  br i1 %.not4.i, label %14, label %17

14:                                               ; preds = %11
  %15 = load ptr, ptr %5, align 8, !tbaa !113
  %16 = tail call i32 @ossl_quic_channel_is_active(ptr noundef %15) #12
  %.not6.i = icmp eq i32 %16, 0
  br i1 %.not6.i, label %17, label %quic_mutation_allowed.exit

17:                                               ; preds = %11, %1, %14
  %18 = load ptr, ptr %0, align 8, !tbaa !204
  tail call void (ptr, ptr, i32, ptr, i32, ptr, ...) @quic_raise_non_normal_error(ptr noundef %18, ptr nonnull poison, i32 noundef 3809, ptr noundef nonnull @__func__.wait_for_incoming_stream, i32 noundef 207, ptr noundef null)
  br label %21

quic_mutation_allowed.exit:                       ; preds = %14
  %19 = tail call ptr @ossl_quic_stream_map_peek_accept_queue(ptr noundef %7) #12
  %20 = getelementptr inbounds nuw i8, ptr %0, i64 8
  store ptr %19, ptr %20, align 8, !tbaa !206
  %.not8 = icmp ne ptr %19, null
  %. = zext i1 %.not8 to i32
  br label %21

21:                                               ; preds = %quic_mutation_allowed.exit, %17
  %.0 = phi i32 [ -1, %17 ], [ %., %quic_mutation_allowed.exit ]
  ret i32 %.0
}